target datalayout = "e-m:e-p270:32:32-p271:32:32-p272:64:64-i64:64-i128:128-f80:128-n8:16:32:64-S128"
target triple = "x86_64-pc-linux-gnu"

%struct.UFILE = type { ptr, ptr, ptr, %struct.u_localized_string, [1024 x i16], i8, i32 }
%struct.u_localized_string = type { ptr, ptr, ptr, %struct.ULocaleBundle }
%struct.ULocaleBundle = type { ptr, [5 x ptr], i8 }
%struct.UFILETranslitBuffer = type { ptr, i32, i32, i32, ptr }

; Function Attrs: mustprogress uwtable
define void @_Z23ufile_flush_translit_77P5UFILE(ptr noundef %0) #0 {
  %2 = alloca ptr, align 8
  store ptr %0, ptr %2, align 8, !tbaa !3
  %3 = load ptr, ptr %2, align 8, !tbaa !3
  %4 = icmp ne ptr %3, null
  br i1 %4, label %5, label %10

5:                                                ; preds = %1
  %6 = load ptr, ptr %2, align 8, !tbaa !3
  %7 = getelementptr inbounds nuw %struct.UFILE, ptr %6, i32 0, i32 0
  %8 = load ptr, ptr %7, align 8, !tbaa !15
  %9 = icmp ne ptr %8, null
  br i1 %9, label %11, label %10

10:                                               ; preds = %5, %1
  br label %14

11:                                               ; preds = %5
  %12 = load ptr, ptr %2, align 8, !tbaa !3
  %13 = call i32 @u_file_write_flush_77(ptr noundef null, i32 noundef 0, ptr noundef %12, i8 noundef signext 0, i8 noundef signext 1)
  br label %14

14:                                               ; preds = %11, %10
  ret void
}

; Function Attrs: mustprogress uwtable
define void @_Z23ufile_close_translit_77P5UFILE(ptr noundef %0) #0 {
  %2 = alloca ptr, align 8
  store ptr %0, ptr %2, align 8, !tbaa !3
  %3 = load ptr, ptr %2, align 8, !tbaa !3
  %4 = icmp ne ptr %3, null
  br i1 %4, label %5, label %10

5:                                                ; preds = %1
  %6 = load ptr, ptr %2, align 8, !tbaa !3
  %7 = getelementptr inbounds nuw %struct.UFILE, ptr %6, i32 0, i32 0
  %8 = load ptr, ptr %7, align 8, !tbaa !15
  %9 = icmp ne ptr %8, null
  br i1 %9, label %11, label %10

10:                                               ; preds = %5, %1
  br label %44

11:                                               ; preds = %5
  %12 = load ptr, ptr %2, align 8, !tbaa !3
  call void @_Z23ufile_flush_translit_77P5UFILE(ptr noundef %12)
  %13 = load ptr, ptr %2, align 8, !tbaa !3
  %14 = getelementptr inbounds nuw %struct.UFILE, ptr %13, i32 0, i32 0
  %15 = load ptr, ptr %14, align 8, !tbaa !15
  %16 = getelementptr inbounds nuw %struct.UFILETranslitBuffer, ptr %15, i32 0, i32 4
  %17 = load ptr, ptr %16, align 8, !tbaa !24
  %18 = icmp ne ptr %17, null
  br i1 %18, label %19, label %25

19:                                               ; preds = %11
  %20 = load ptr, ptr %2, align 8, !tbaa !3
  %21 = getelementptr inbounds nuw %struct.UFILE, ptr %20, i32 0, i32 0
  %22 = load ptr, ptr %21, align 8, !tbaa !15
  %23 = getelementptr inbounds nuw %struct.UFILETranslitBuffer, ptr %22, i32 0, i32 4
  %24 = load ptr, ptr %23, align 8, !tbaa !24
  call void @utrans_close_77(ptr noundef %24)
  br label %25

25:                                               ; preds = %19, %11
  %26 = load ptr, ptr %2, align 8, !tbaa !3
  %27 = getelementptr inbounds nuw %struct.UFILE, ptr %26, i32 0, i32 0
  %28 = load ptr, ptr %27, align 8, !tbaa !15
  %29 = getelementptr inbounds nuw %struct.UFILETranslitBuffer, ptr %28, i32 0, i32 0
  %30 = load ptr, ptr %29, align 8, !tbaa !26
  %31 = icmp ne ptr %30, null
  br i1 %31, label %32, label %38

32:                                               ; preds = %25
  %33 = load ptr, ptr %2, align 8, !tbaa !3
  %34 = getelementptr inbounds nuw %struct.UFILE, ptr %33, i32 0, i32 0
  %35 = load ptr, ptr %34, align 8, !tbaa !15
  %36 = getelementptr inbounds nuw %struct.UFILETranslitBuffer, ptr %35, i32 0, i32 0
  %37 = load ptr, ptr %36, align 8, !tbaa !26
  call void @uprv_free_77(ptr noundef %37)
  br label %38

38:                                               ; preds = %32, %25
  %39 = load ptr, ptr %2, align 8, !tbaa !3
  %40 = getelementptr inbounds nuw %struct.UFILE, ptr %39, i32 0, i32 0
  %41 = load ptr, ptr %40, align 8, !tbaa !15
  call void @uprv_free_77(ptr noundef %41)
  %42 = load ptr, ptr %2, align 8, !tbaa !3
  %43 = getelementptr inbounds nuw %struct.UFILE, ptr %42, i32 0, i32 0
  store ptr null, ptr %43, align 8, !tbaa !15
  br label %44

44:                                               ; preds = %38, %10
  ret void
}