; Function Attrs: mustprogress uwtable
define void @_Z23ufile_close_translit_77P5UFILE(ptr noundef %0) local_unnamed_addr #0 {
  %.not = icmp eq ptr %0, null
  br i1 %.not, label %15, label %2

2:                                                ; preds = %1
  %3 = load ptr, ptr %0, align 8, !tbaa !7
  %.not11 = icmp eq ptr %3, null
  br i1 %.not11, label %15, label %_Z23ufile_flush_translit_77P5UFILE.exit

_Z23ufile_flush_translit_77P5UFILE.exit:          ; preds = %2
  %4 = tail call i32 @u_file_write_flush_77(ptr noundef null, i32 noundef 0, ptr noundef nonnull %0, i8 noundef signext 0, i8 noundef signext 1)
  %5 = load ptr, ptr %0, align 8, !tbaa !7
  %6 = getelementptr inbounds nuw i8, ptr %5, i64 24
  %7 = load ptr, ptr %6, align 8, !tbaa !17
  %.not12 = icmp eq ptr %7, null
  br i1 %.not12, label %9, label %8

8:                                                ; preds = %_Z23ufile_flush_translit_77P5UFILE.exit
  tail call void @utrans_close_77(ptr noundef nonnull %7)
  %.pre = load ptr, ptr %0, align 8, !tbaa !7
  br label %9

9:                                                ; preds = %8, %_Z23ufile_flush_translit_77P5UFILE.exit
  %10 = phi ptr [ %.pre, %8 ], [ %5, %_Z23ufile_flush_translit_77P5UFILE.exit ]
  %11 = load ptr, ptr %10, align 8, !tbaa !20
  %.not13 = icmp eq ptr %11, null
  br i1 %.not13, label %13, label %12

12:                                               ; preds = %9
  tail call void @uprv_free_77(ptr noundef nonnull %11)
  %.pre14 = load ptr, ptr %0, align 8, !tbaa !7
  br label %13

13:                                               ; preds = %12, %9
  %14 = phi ptr [ %.pre14, %12 ], [ %10, %9 ]
  tail call void @uprv_free_77(ptr noundef %14)
  store ptr null, ptr %0, align 8, !tbaa !7
  br label %15

15:                                               ; preds = %1, %2, %13
  ret void
}